; ModuleID = '23/999.c'
source_filename = "23/999.c"
target datalayout = "e-m:e-p270:32:32-p271:32:32-p272:64:64-i64:64-f80:128-n8:16:32:64-S128"
target triple = "x86_64-pc-linux-gnu"

@.str = private unnamed_addr constant [3 x i8] c"%c\00", align 1
@.str.1 = private unnamed_addr constant [2 x i8] c" \00", align 1

; Function Attrs: noinline nounwind uwtable
define dso_local void @main() #0 {
  %1 = alloca [100 x i8], align 16
  %2 = alloca i8*, align 8
  %3 = alloca i8*, align 8
  %4 = alloca i8*, align 8
  %5 = getelementptr inbounds [100 x i8], [100 x i8]* %1, i64 0, i64 0
  %6 = call i32 (i8*, ...) bitcast (i32 (...)* @gets to i32 (i8*, ...)*)(i8* %5)
  %7 = getelementptr inbounds [100 x i8], [100 x i8]* %1, i64 0, i64 0
  %8 = getelementptr inbounds i8, i8* %7, i64 -1
  store i8* %8, i8** %2, align 8
  %9 = getelementptr inbounds [100 x i8], [100 x i8]* %1, i64 0, i64 0
  %10 = getelementptr inbounds [100 x i8], [100 x i8]* %1, i64 0, i64 0
  %11 = call i64 @strlen(i8* %10) #3
  %12 = getelementptr inbounds i8, i8* %9, i64 %11
  %13 = getelementptr inbounds i8, i8* %12, i64 -1
  store i8* %13, i8** %3, align 8
  br label %14

14:                                               ; preds = %81, %0
  %15 = load i8*, i8** %3, align 8
  %16 = load i8*, i8** %2, align 8
  %17 = icmp uge i8* %15, %16
  br i1 %17, label %18, label %84

18:                                               ; preds = %14
  %19 = load i8*, i8** %3, align 8
  %20 = load i8, i8* %19, align 1
  %21 = sext i8 %20 to i32
  %22 = icmp eq i32 %21, 32
  br i1 %22, label %23, label %50

23:                                               ; preds = %18
  %24 = load i8*, i8** %3, align 8
  %25 = getelementptr inbounds i8, i8* %24, i64 1
  store i8* %25, i8** %4, align 8
  br label %26

26:                                               ; preds = %45, %23
  %27 = load i8*, i8** %4, align 8
  %28 = load i8, i8* %27, align 1
  %29 = sext i8 %28 to i32
  %30 = icmp ne i32 %29, 32
  br i1 %30, label %31, label %38

31:                                               ; preds = %26
  %32 = load i8*, i8** %4, align 8
  %33 = getelementptr inbounds [100 x i8], [100 x i8]* %1, i64 0, i64 0
  %34 = getelementptr inbounds [100 x i8], [100 x i8]* %1, i64 0, i64 0
  %35 = call i64 @strlen(i8* %34) #3
  %36 = getelementptr inbounds i8, i8* %33, i64 %35
  %37 = icmp ne i8* %32, %36
  br label %38

38:                                               ; preds = %31, %26
  %39 = phi i1 [ false, %26 ], [ %37, %31 ]
  br i1 %39, label %40, label %48

40:                                               ; preds = %38
  %41 = load i8*, i8** %4, align 8
  %42 = load i8, i8* %41, align 1
  %43 = sext i8 %42 to i32
  %44 = call i32 (i8*, ...) @printf(i8* getelementptr inbounds ([3 x i8], [3 x i8]* @.str, i64 0, i64 0), i32 %43)
  br label %45

45:                                               ; preds = %40
  %46 = load i8*, i8** %4, align 8
  %47 = getelementptr inbounds i8, i8* %46, i32 1
  store i8* %47, i8** %4, align 8
  br label %26

48:                                               ; preds = %38
  %49 = call i32 (i8*, ...) @printf(i8* getelementptr inbounds ([2 x i8], [2 x i8]* @.str.1, i64 0, i64 0))
  br label %50

50:                                               ; preds = %48, %18
  %51 = load i8*, i8** %3, align 8
  %52 = load i8*, i8** %2, align 8
  %53 = icmp eq i8* %51, %52
  br i1 %53, label %54, label %80

54:                                               ; preds = %50
  %55 = load i8*, i8** %3, align 8
  %56 = getelementptr inbounds i8, i8* %55, i64 1
  store i8* %56, i8** %4, align 8
  br label %57

57:                                               ; preds = %76, %54
  %58 = load i8*, i8** %4, align 8
  %59 = load i8, i8* %58, align 1
  %60 = sext i8 %59 to i32
  %61 = icmp ne i32 %60, 32
  br i1 %61, label %62, label %69

62:                                               ; preds = %57
  %63 = load i8*, i8** %4, align 8
  %64 = getelementptr inbounds [100 x i8], [100 x i8]* %1, i64 0, i64 0
  %65 = getelementptr inbounds [100 x i8], [100 x i8]* %1, i64 0, i64 0
  %66 = call i64 @strlen(i8* %65) #3
  %67 = getelementptr inbounds i8, i8* %64, i64 %66
  %68 = icmp ne i8* %63, %67
  br label %69

69:                                               ; preds = %62, %57
  %70 = phi i1 [ false, %57 ], [ %68, %62 ]
  br i1 %70, label %71, label %79

71:                                               ; preds = %69
  %72 = load i8*, i8** %4, align 8
  %73 = load i8, i8* %72, align 1
  %74 = sext i8 %73 to i32
  %75 = call i32 (i8*, ...) @printf(i8* getelementptr inbounds ([3 x i8], [3 x i8]* @.str, i64 0, i64 0), i32 %74)
  br label %76

76:                                               ; preds = %71
  %77 = load i8*, i8** %4, align 8
  %78 = getelementptr inbounds i8, i8* %77, i32 1
  store i8* %78, i8** %4, align 8
  br label %57

79:                                               ; preds = %69
  br label %80

80:                                               ; preds = %79, %50
  br label %81

81:                                               ; preds = %80
  %82 = load i8*, i8** %3, align 8
  %83 = getelementptr inbounds i8, i8* %82, i32 -1
  store i8* %83, i8** %3, align 8
  br label %14

84:                                               ; preds = %14
  ret void
}

declare dso_local i32 @gets(...) #1

; Function Attrs: nounwind readonly
declare dso_local i64 @strlen(i8*) #2

declare dso_local i32 @printf(i8*, ...) #1


!llvm.module.flags = !{!0}
!llvm.ident = !{!1}

!0 = !{i32 1, !"wchar_size", i32 4}
!1 = !{!"clang version 10.0.0-4ubuntu1 "}
